target datalayout = "e-m:e-p270:32:32-p271:32:32-p272:64:64-i64:64-i128:128-f80:128-n8:16:32:64-S128"
target triple = "x86_64-pc-linux-gnu"

%"class.std::__cxx11::basic_string" = type { %"struct.std::__cxx11::basic_string<char>::_Alloc_hider", i64, %union.anon }
%"struct.std::__cxx11::basic_string<char>::_Alloc_hider" = type { ptr }
%union.anon = type { i64, [8 x i8] }
%"class.gmx::ColvarsForceProvider" = type { %"class.gmx::ColvarProxyGromacs", %"class.gmx::IForceProvider", double, i8, %"class.std::unique_ptr.114", i32, ptr, ptr, ptr, ptr, ptr, %"struct.gmx::ColvarsForceProviderState" }
%"class.gmx::ColvarProxyGromacs" = type { %class.colvarproxy, %struct.t_atoms, i32, %struct.t_pbc, ptr, i8, [7 x i8], %"class.gmx::ThreeFry2x64Fast", %"class.gmx::TabulatedNormalDistribution" }
%class.colvarproxy = type { %class.colvarproxy_system, %class.colvarproxy_atoms.base, %class.colvarproxy_atom_groups, %class.colvarproxy_volmaps, %class.colvarproxy_smp, %class.colvarproxy_replicas, %class.colvarproxy_script.base, %class.colvarproxy_tcl, %class.colvarproxy_io, ptr, i8, %"class.std::__cxx11::basic_string", i8, i8, i8, i32, i64, %"class.std::__cxx11::basic_string", ptr }
%class.colvarproxy_system = type { ptr, %"class.std::__cxx11::basic_string", double, double, i8, double, double, double, double, double, i8, i32, %"class.colvarmodule::rvector", %"class.colvarmodule::rvector", %"class.colvarmodule::rvector", %"class.colvarmodule::rvector", %"class.colvarmodule::rvector", %"class.colvarmodule::rvector" }
%"class.colvarmodule::rvector" = type { double, double, double }
%class.colvarproxy_atoms.base = type <{ ptr, %"class.std::vector.84", %"class.std::vector.89", %"class.std::vector.94", %"class.std::vector.94", %"class.std::vector.99", %"class.std::vector.99", %"class.std::vector.99", double, double, i32, i8, i8, i8 }>
%"class.std::vector.84" = type { %"struct.std::_Vector_base.85" }
%"struct.std::_Vector_base.85" = type { %"struct.std::_Vector_base<int, std::allocator<int>>::_Vector_impl" }
%"struct.std::_Vector_base<int, std::allocator<int>>::_Vector_impl" = type { %"struct.std::_Vector_base<int, std::allocator<int>>::_Vector_impl_data" }
%"struct.std::_Vector_base<int, std::allocator<int>>::_Vector_impl_data" = type { ptr, ptr, ptr }
%"class.std::vector.89" = type { %"struct.std::_Vector_base.90" }
%"struct.std::_Vector_base.90" = type { %"struct.std::_Vector_base<unsigned long, std::allocator<unsigned long>>::_Vector_impl" }
%"struct.std::_Vector_base<unsigned long, std::allocator<unsigned long>>::_Vector_impl" = type { %"struct.std::_Vector_base<unsigned long, std::allocator<unsigned long>>::_Vector_impl_data" }
%"struct.std::_Vector_base<unsigned long, std::allocator<unsigned long>>::_Vector_impl_data" = type { ptr, ptr, ptr }
%"class.std::vector.94" = type { %"struct.std::_Vector_base.95" }
%"struct.std::_Vector_base.95" = type { %"struct.std::_Vector_base<double, std::allocator<double>>::_Vector_impl" }
%"struct.std::_Vector_base<double, std::allocator<double>>::_Vector_impl" = type { %"struct.std::_Vector_base<double, std::allocator<double>>::_Vector_impl_data" }
%"struct.std::_Vector_base<double, std::allocator<double>>::_Vector_impl_data" = type { ptr, ptr, ptr }
%"class.std::vector.99" = type { %"struct.std::_Vector_base.100" }
%"struct.std::_Vector_base.100" = type { %"struct.std::_Vector_base<colvarmodule::rvector, std::allocator<colvarmodule::rvector>>::_Vector_impl" }
%"struct.std::_Vector_base<colvarmodule::rvector, std::allocator<colvarmodule::rvector>>::_Vector_impl" = type { %"struct.std::_Vector_base<colvarmodule::rvector, std::allocator<colvarmodule::rvector>>::_Vector_impl_data" }
%"struct.std::_Vector_base<colvarmodule::rvector, std::allocator<colvarmodule::rvector>>::_Vector_impl_data" = type { ptr, ptr, ptr }
%class.colvarproxy_atom_groups = type { ptr, %"class.std::vector.84", %"class.std::vector.89", %"class.std::vector.94", %"class.std::vector.94", %"class.std::vector.99", %"class.std::vector.99", %"class.std::vector.99", double, double }
%class.colvarproxy_volmaps = type { ptr, %"class.std::vector.84", %"class.std::vector.89", %"class.std::vector.94", %"class.std::vector.94", double, double }
%class.colvarproxy_smp = type { ptr, i8, ptr }
%class.colvarproxy_replicas = type { ptr }
%class.colvarproxy_script.base = type <{ ptr, ptr, i8 }>
%class.colvarproxy_tcl = type { ptr, ptr }
%class.colvarproxy_io = type { ptr, %"class.std::__cxx11::basic_string", %"class.std::__cxx11::basic_string", %"class.std::__cxx11::basic_string", i32, %"class.std::map.104", ptr, %"class.std::map.109", ptr }
%"class.std::map.104" = type { %"class.std::_Rb_tree.105" }
%"class.std::_Rb_tree.105" = type { %"struct.std::_Rb_tree<std::__cxx11::basic_string<char>, std::pair<const std::__cxx11::basic_string<char>, std::basic_istream<char> *>, std::_Select1st<std::pair<const std::__cxx11::basic_string<char>, std::basic_istream<char> *>>, std::less<std::__cxx11::basic_string<char>>>::_Rb_tree_impl" }
%"struct.std::_Rb_tree<std::__cxx11::basic_string<char>, std::pair<const std::__cxx11::basic_string<char>, std::basic_istream<char> *>, std::_Select1st<std::pair<const std::__cxx11::basic_string<char>, std::basic_istream<char> *>>, std::less<std::__cxx11::basic_string<char>>>::_Rb_tree_impl" = type { %"struct.std::_Rb_tree_key_compare", %"struct.std::_Rb_tree_header" }
%"struct.std::_Rb_tree_key_compare" = type { %"struct.std::less" }
%"struct.std::less" = type { i8 }
%"struct.std::_Rb_tree_header" = type { %"struct.std::_Rb_tree_node_base", i64 }
%"struct.std::_Rb_tree_node_base" = type { i32, ptr, ptr, ptr }
%"class.std::map.109" = type { %"class.std::_Rb_tree.110" }
%"class.std::_Rb_tree.110" = type { %"struct.std::_Rb_tree<std::__cxx11::basic_string<char>, std::pair<const std::__cxx11::basic_string<char>, std::basic_ostream<char> *>, std::_Select1st<std::pair<const std::__cxx11::basic_string<char>, std::basic_ostream<char> *>>, std::less<std::__cxx11::basic_string<char>>>::_Rb_tree_impl" }
%"struct.std::_Rb_tree<std::__cxx11::basic_string<char>, std::pair<const std::__cxx11::basic_string<char>, std::basic_ostream<char> *>, std::_Select1st<std::pair<const std::__cxx11::basic_string<char>, std::basic_ostream<char> *>>, std::less<std::__cxx11::basic_string<char>>>::_Rb_tree_impl" = type { %"struct.std::_Rb_tree_key_compare", %"struct.std::_Rb_tree_header" }
%struct.t_atoms = type { i32, ptr, ptr, ptr, ptr, i32, ptr, ptr, i8, i8, i8, i8, i8 }
%struct.t_pbc = type { i32, i32, i32, i32, [3 x [3 x float]], [3 x float], [3 x float], [3 x float], float, i32, [12 x [3 x i32]], [12 x [3 x float]] }
%"class.gmx::ThreeFry2x64Fast" = type { %"class.gmx::ThreeFry2x64General.base", [4 x i8] }
%"class.gmx::ThreeFry2x64General.base" = type <{ %"struct.std::array", %"struct.std::array", %"struct.std::array", i32 }>
%"struct.std::array" = type { [2 x i64] }
%"class.gmx::TabulatedNormalDistribution" = type <{ %"class.gmx::TabulatedNormalDistribution<>::param_type", i64, i32, [4 x i8] }>
%"class.gmx::TabulatedNormalDistribution<>::param_type" = type { float, float }
%"class.gmx::IForceProvider" = type { ptr }
%"class.std::unique_ptr.114" = type { %"struct.std::__uniq_ptr_data.115" }
%"struct.std::__uniq_ptr_data.115" = type { %"class.std::__uniq_ptr_impl.116" }
%"class.std::__uniq_ptr_impl.116" = type { %"class.std::tuple.117" }
%"class.std::tuple.117" = type { %"struct.std::_Tuple_impl.118" }
%"struct.std::_Tuple_impl.118" = type { %"struct.std::_Head_base.121" }
%"struct.std::_Head_base.121" = type { ptr }
%"struct.gmx::ColvarsForceProviderState" = type { i8, i64, ptr, %"class.std::vector" }
%"class.std::vector" = type { %"struct.std::_Vector_base" }
%"struct.std::_Vector_base" = type { %"struct.std::_Vector_base<unsigned char, std::allocator<unsigned char>>::_Vector_impl" }
%"struct.std::_Vector_base<unsigned char, std::allocator<unsigned char>>::_Vector_impl" = type { %"struct.std::_Vector_base<unsigned char, std::allocator<unsigned char>>::_Vector_impl_data" }
%"struct.std::_Vector_base<unsigned char, std::allocator<unsigned char>>::_Vector_impl_data" = type { ptr, ptr, ptr }
%"class.gmx::KeyValueTreeObjectBuilder" = type { ptr }
%"struct.gmx::MDModulesWriteCheckpointData" = type { %"class.gmx::KeyValueTreeObjectBuilder" }

; Function Attrs: mustprogress uwtable
define void @_ZN3gmx20ColvarsForceProvider19writeCheckpointDataENS_28MDModulesWriteCheckpointDataERKNSt7__cxx1112basic_stringIcSt11char_traitsIcESaIcEEE(ptr noundef nonnull align 8 dereferenceable(1856) %0, ptr %1, ptr noundef nonnull align 8 dereferenceable(32) %2) #2 align 2 {
  %4 = alloca %"struct.gmx::MDModulesWriteCheckpointData", align 8
  %5 = alloca ptr, align 8
  %6 = alloca ptr, align 8
  %7 = alloca %"class.gmx::KeyValueTreeObjectBuilder", align 8
  %8 = getelementptr inbounds %"struct.gmx::MDModulesWriteCheckpointData", ptr %4, i32 0, i32 0
  %9 = getelementptr inbounds %"class.gmx::KeyValueTreeObjectBuilder", ptr %8, i32 0, i32 0
  store ptr %1, ptr %9, align 8
  store ptr %0, ptr %5, align 8
  store ptr %2, ptr %6, align 8
  %10 = load ptr, ptr %5, align 8
  %11 = getelementptr inbounds %class.colvarproxy, ptr %10, i32 0, i32 9
  %12 = load ptr, ptr %11, align 8
  %13 = getelementptr inbounds %"class.gmx::ColvarsForceProvider", ptr %10, i32 0, i32 11
  %14 = getelementptr inbounds %"struct.gmx::ColvarsForceProviderState", ptr %13, i32 0, i32 3
  %15 = call noundef i32 @_ZN12colvarmodule18write_state_bufferERSt6vectorIhSaIhEE(ptr noundef nonnull align 8 dereferenceable(616) %12, ptr noundef nonnull align 8 dereferenceable(24) %14)
  %16 = getelementptr inbounds %"class.gmx::ColvarsForceProvider", ptr %10, i32 0, i32 11
  %17 = getelementptr inbounds %"struct.gmx::MDModulesWriteCheckpointData", ptr %4, i32 0, i32 0
  call void @llvm.memcpy.p0.p0.i64(ptr align 8 %7, ptr align 8 %17, i64 8, i1 false)
  %18 = load ptr, ptr %6, align 8
  %19 = getelementptr inbounds %"class.gmx::KeyValueTreeObjectBuilder", ptr %7, i32 0, i32 0
  %20 = load ptr, ptr %19, align 8
  call void @_ZNK3gmx25ColvarsForceProviderState10writeStateENS_25KeyValueTreeObjectBuilderERKNSt7__cxx1112basic_stringIcSt11char_traitsIcESaIcEEE(ptr noundef nonnull align 8 dereferenceable(48) %16, ptr %20, ptr noundef nonnull align 8 dereferenceable(32) %18)
  ret void
}