; Function Attrs: mustprogress uwtable
define void @_ZN3gmx20ColvarsForceProvider19writeCheckpointDataENS_28MDModulesWriteCheckpointDataERKNSt7__cxx1112basic_stringIcSt11char_traitsIcESaIcEEE(ptr noundef nonnull align 8 dereferenceable(1856) %0, ptr %1, ptr noundef nonnull align 8 dereferenceable(32) %2) local_unnamed_addr #3 align 2 {
  %4 = getelementptr inbounds i8, ptr %0, i64 1064
  %5 = load ptr, ptr %4, align 8
  %6 = getelementptr inbounds i8, ptr %0, i64 1808
  %7 = getelementptr inbounds i8, ptr %0, i64 1832
  %8 = tail call noundef i32 @_ZN12colvarmodule18write_state_bufferERSt6vectorIhSaIhEE(ptr noundef nonnull align 8 dereferenceable(616) %5, ptr noundef nonnull align 8 dereferenceable(24) %7)
  tail call void @_ZNK3gmx25ColvarsForceProviderState10writeStateENS_25KeyValueTreeObjectBuilderERKNSt7__cxx1112basic_stringIcSt11char_traitsIcESaIcEEE(ptr noundef nonnull align 8 dereferenceable(48) %6, ptr %1, ptr noundef nonnull align 8 dereferenceable(32) %2)
  ret void
}